target datalayout = "e-m:e-p270:32:32-p271:32:32-p272:64:64-i64:64-i128:128-f80:128-n8:16:32:64-S128"
target triple = "x86_64-pc-linux-gnu"

%union.PJ_COORD = type { [4 x double] }
%struct.PJ_XY = type { double, double }
%struct.PJ_XYZ = type { double, double, double }

; Function Attrs: mustprogress nounwind uwtable
define double @proj_xy_dist(ptr noundef byval(%union.PJ_COORD) align 8 %0, ptr noundef byval(%union.PJ_COORD) align 8 %1) #0 {
  %3 = getelementptr inbounds %struct.PJ_XY, ptr %0, i32 0, i32 0
  %4 = load double, ptr %3, align 8
  %5 = getelementptr inbounds %struct.PJ_XY, ptr %1, i32 0, i32 0
  %6 = load double, ptr %5, align 8
  %7 = fsub double %4, %6
  %8 = getelementptr inbounds %struct.PJ_XY, ptr %0, i32 0, i32 1
  %9 = load double, ptr %8, align 8
  %10 = getelementptr inbounds %struct.PJ_XY, ptr %1, i32 0, i32 1
  %11 = load double, ptr %10, align 8
  %12 = fsub double %9, %11
  %13 = call double @hypot(double noundef %7, double noundef %12) #19
  ret double %13
}

; Function Attrs: mustprogress nounwind uwtable
define double @proj_xyz_dist(ptr noundef byval(%union.PJ_COORD) align 8 %0, ptr noundef byval(%union.PJ_COORD) align 8 %1) #0 {
  %3 = alloca %union.PJ_COORD, align 8
  %4 = alloca %union.PJ_COORD, align 8
  call void @llvm.memcpy.p0.p0.i64(ptr align 8 %3, ptr align 8 %0, i64 32, i1 false)
  call void @llvm.memcpy.p0.p0.i64(ptr align 8 %4, ptr align 8 %1, i64 32, i1 false)
  %5 = call double @proj_xy_dist(ptr noundef byval(%union.PJ_COORD) align 8 %3, ptr noundef byval(%union.PJ_COORD) align 8 %4)
  %6 = getelementptr inbounds %struct.PJ_XYZ, ptr %0, i32 0, i32 2
  %7 = load double, ptr %6, align 8
  %8 = getelementptr inbounds %struct.PJ_XYZ, ptr %1, i32 0, i32 2
  %9 = load double, ptr %8, align 8
  %10 = fsub double %7, %9
  %11 = call double @hypot(double noundef %5, double noundef %10) #19
  ret double %11
}